; ModuleID = '50/121.c'
source_filename = "50/121.c"
target datalayout = "e-m:e-p270:32:32-p271:32:32-p272:64:64-i64:64-f80:128-n8:16:32:64-S128"
target triple = "x86_64-pc-linux-gnu"

@__const.main.monthday = private unnamed_addr constant [12 x i32] [i32 31, i32 28, i32 31, i32 30, i32 31, i32 30, i32 31, i32 31, i32 30, i32 31, i32 30, i32 31], align 16
@.str = private unnamed_addr constant [3 x i8] c"%d\00", align 1
@.str.1 = private unnamed_addr constant [4 x i8] c"%d\0A\00", align 1

; Function Attrs: noinline nounwind uwtable
define dso_local i32 @main(i32 %0, i8** %1) #0 {
  %3 = alloca i32, align 4
  %4 = alloca i32, align 4
  %5 = alloca i8**, align 8
  %6 = alloca i32, align 4
  %7 = alloca i32, align 4
  %8 = alloca i32, align 4
  %9 = alloca i32, align 4
  %10 = alloca i32, align 4
  %11 = alloca i32, align 4
  %12 = alloca [12 x i32], align 16
  store i32 0, i32* %3, align 4
  store i32 %0, i32* %4, align 4
  store i8** %1, i8*** %5, align 8
  store i32 0, i32* %11, align 4
  %13 = bitcast [12 x i32]* %12 to i8*
  call void @llvm.memcpy.p0i8.p0i8.i64(i8* align 16 %13, i8* align 16 bitcast ([12 x i32]* @__const.main.monthday to i8*), i64 48, i1 false)
  %14 = call i32 (i8*, ...) @__isoc99_scanf(i8* getelementptr inbounds ([3 x i8], [3 x i8]* @.str, i64 0, i64 0), i32* %6)
  store i32 0, i32* %9, align 4
  br label %15

15:                                               ; preds = %66, %2
  %16 = load i32, i32* %9, align 4
  %17 = icmp slt i32 %16, 12
  br i1 %17, label %18, label %69

18:                                               ; preds = %15
  store i32 0, i32* %11, align 4
  store i32 0, i32* %10, align 4
  br label %19

19:                                               ; preds = %30, %18
  %20 = load i32, i32* %10, align 4
  %21 = load i32, i32* %9, align 4
  %22 = icmp slt i32 %20, %21
  br i1 %22, label %23, label %33

23:                                               ; preds = %19
  %24 = load i32, i32* %11, align 4
  %25 = load i32, i32* %10, align 4
  %26 = sext i32 %25 to i64
  %27 = getelementptr inbounds [12 x i32], [12 x i32]* %12, i64 0, i64 %26
  %28 = load i32, i32* %27, align 4
  %29 = add nsw i32 %24, %28
  store i32 %29, i32* %11, align 4
  br label %30

30:                                               ; preds = %23
  %31 = load i32, i32* %10, align 4
  %32 = add nsw i32 %31, 1
  store i32 %32, i32* %10, align 4
  br label %19

33:                                               ; preds = %19
  %34 = load i32, i32* %11, align 4
  %35 = add nsw i32 %34, 12
  store i32 %35, i32* %11, align 4
  %36 = load i32, i32* %11, align 4
  %37 = srem i32 %36, 7
  store i32 %37, i32* %8, align 4
  %38 = load i32, i32* %8, align 4
  %39 = load i32, i32* %6, align 4
  %40 = add nsw i32 %38, %39
  %41 = icmp sle i32 %40, 7
  br i1 %41, label %42, label %46

42:                                               ; preds = %33
  %43 = load i32, i32* %8, align 4
  %44 = load i32, i32* %6, align 4
  %45 = add nsw i32 %43, %44
  store i32 %45, i32* %7, align 4
  br label %58

46:                                               ; preds = %33
  %47 = load i32, i32* %8, align 4
  %48 = load i32, i32* %6, align 4
  %49 = add nsw i32 %47, %48
  %50 = icmp sgt i32 %49, 7
  br i1 %50, label %51, label %56

51:                                               ; preds = %46
  %52 = load i32, i32* %6, align 4
  %53 = load i32, i32* %8, align 4
  %54 = sub nsw i32 7, %53
  %55 = sub nsw i32 %52, %54
  store i32 %55, i32* %7, align 4
  br label %57

56:                                               ; preds = %46
  br label %57

57:                                               ; preds = %56, %51
  br label %58

58:                                               ; preds = %57, %42
  %59 = load i32, i32* %7, align 4
  %60 = icmp eq i32 %59, 5
  br i1 %60, label %61, label %65

61:                                               ; preds = %58
  %62 = load i32, i32* %9, align 4
  %63 = add nsw i32 %62, 1
  %64 = call i32 (i8*, ...) @printf(i8* getelementptr inbounds ([4 x i8], [4 x i8]* @.str.1, i64 0, i64 0), i32 %63)
  br label %65

65:                                               ; preds = %61, %58
  br label %66

66:                                               ; preds = %65
  %67 = load i32, i32* %9, align 4
  %68 = add nsw i32 %67, 1
  store i32 %68, i32* %9, align 4
  br label %15

69:                                               ; preds = %15
  ret i32 0
}

; Function Attrs: argmemonly nounwind willreturn
declare void @llvm.memcpy.p0i8.p0i8.i64(i8* noalias nocapture writeonly, i8* noalias nocapture readonly, i64, i1 immarg) #1

declare dso_local i32 @__isoc99_scanf(i8*, ...) #2

declare dso_local i32 @printf(i8*, ...) #2


!llvm.module.flags = !{!0}
!llvm.ident = !{!1}

!0 = !{i32 1, !"wchar_size", i32 4}
!1 = !{!"clang version 10.0.0-4ubuntu1 "}
